target datalayout = "e-m:e-p270:32:32-p271:32:32-p272:64:64-i64:64-i128:128-f80:128-n8:16:32:64-S128"
target triple = "x86_64-pc-linux-gnu"

%struct.epan_column_info = type { ptr, i32, ptr, ptr, ptr, %struct.col_expr_t, i32, ptr }
%struct.col_expr_t = type { ptr, ptr }
%struct.col_item_t = type { i32, ptr, ptr, ptr, i32, ptr, ptr, ptr, ptr, i32, i32, i32 }
%struct._packet_info = type { ptr, ptr, i32, i32, %struct.nstime_t, %struct.nstime_t, %struct.nstime_t, i32, ptr, ptr, ptr, ptr, %struct._address, %struct._address, %struct._address, %struct._address, %struct._address, %struct._address, i32, ptr, i32, %struct.anon, i32, i32, i32, i32, ptr, i32, ptr, ptr, i16, i16, i32, i32, i16, i32, i32, ptr, ptr, ptr, i8, i8, i16, i16, i16, i32, i16, i16, ptr, ptr, ptr, ptr, ptr, i32 }
%struct.nstime_t = type { i64, i32 }
%struct._address = type { i32, i32, ptr, ptr }
%struct.anon = type { i8, [3 x i8] }
%struct._proto_node = type { ptr, ptr, ptr, ptr, ptr, ptr }
%struct.field_info = type { ptr, i32, i32, i32, i32, i32, i32, ptr, ptr, ptr, i32, i32 }

@proto_cols = internal global i32 0, align 4
@ett_cols = internal global i32 0, align 4
@.str.17 = private unnamed_addr constant [7 x i8] c"%s: %s\00", align 1

; Function Attrs: nounwind uwtable
define internal void @proto_item_set_hidden(ptr noundef %0) #0 {
  %2 = alloca ptr, align 8
  store ptr %0, ptr %2, align 8
  %3 = load ptr, ptr %2, align 8
  %4 = icmp ne ptr %3, null
  br i1 %4, label %5, label %24

5:                                                ; preds = %1
  br label %6

6:                                                ; preds = %5
  %7 = load ptr, ptr %2, align 8
  %8 = getelementptr inbounds %struct._proto_node, ptr %7, i32 0, i32 4
  %9 = load ptr, ptr %8, align 8
  %10 = icmp ne ptr %9, null
  br i1 %10, label %11, label %22

11:                                               ; preds = %6
  %12 = load ptr, ptr %2, align 8
  %13 = getelementptr inbounds %struct._proto_node, ptr %12, i32 0, i32 4
  %14 = load ptr, ptr %13, align 8
  %15 = getelementptr inbounds %struct.field_info, ptr %14, i32 0, i32 6
  %16 = load i32, ptr %15, align 4
  %17 = or i32 %16, 1
  %18 = load ptr, ptr %2, align 8
  %19 = getelementptr inbounds %struct._proto_node, ptr %18, i32 0, i32 4
  %20 = load ptr, ptr %19, align 8
  %21 = getelementptr inbounds %struct.field_info, ptr %20, i32 0, i32 6
  store i32 %17, ptr %21, align 4
  br label %22

22:                                               ; preds = %11, %6
  br label %23

23:                                               ; preds = %22
  br label %24

24:                                               ; preds = %23, %1
  ret void
}

; Function Attrs: nounwind uwtable
define hidden void @col_dissect(ptr noundef %0, ptr noundef %1, ptr noundef %2) #0 {
  %4 = alloca ptr, align 8
  %5 = alloca ptr, align 8
  %6 = alloca ptr, align 8
  %7 = alloca ptr, align 8
  %8 = alloca ptr, align 8
  %9 = alloca ptr, align 8
  %10 = alloca i32, align 4
  store ptr %0, ptr %4, align 8
  store ptr %1, ptr %5, align 8
  store ptr %2, ptr %6, align 8
  %11 = load ptr, ptr %5, align 8
  %12 = getelementptr inbounds %struct._packet_info, ptr %11, i32 0, i32 1
  %13 = load ptr, ptr %12, align 8
  store ptr %13, ptr %9, align 8
  %14 = load ptr, ptr %9, align 8
  %15 = icmp ne ptr %14, null
  br i1 %15, label %17, label %16

16:                                               ; preds = %3
  br label %100

17:                                               ; preds = %3
  %18 = load ptr, ptr %6, align 8
  %19 = load i32, ptr @proto_cols, align 4
  %20 = call i32 @proto_field_is_referenced(ptr noundef %18, i32 noundef %19)
  %21 = icmp ne i32 %20, 0
  br i1 %21, label %22, label %100

22:                                               ; preds = %17
  %23 = load ptr, ptr %5, align 8
  call void @col_fill_in(ptr noundef %23, i32 noundef 0, i32 noundef 1)
  %24 = load ptr, ptr %6, align 8
  %25 = load i32, ptr @proto_cols, align 4
  %26 = load ptr, ptr %4, align 8
  %27 = call ptr @proto_tree_add_item(ptr noundef %24, i32 noundef %25, ptr noundef %26, i32 noundef 0, i32 noundef 0, i32 noundef 0)
  store ptr %27, ptr %7, align 8
  %28 = load ptr, ptr %7, align 8
  call void @proto_item_set_hidden(ptr noundef %28)
  %29 = load ptr, ptr %7, align 8
  %30 = load i32, ptr @ett_cols, align 4
  %31 = call ptr @proto_item_add_subtree(ptr noundef %29, i32 noundef %30)
  store ptr %31, ptr %8, align 8
  store i32 0, ptr %10, align 4
  br label %32

32:                                               ; preds = %96, %22
  %33 = load i32, ptr %10, align 4
  %34 = load ptr, ptr %9, align 8
  %35 = getelementptr inbounds %struct.epan_column_info, ptr %34, i32 0, i32 1
  %36 = load i32, ptr %35, align 8
  %37 = icmp slt i32 %33, %36
  br i1 %37, label %38, label %99

38:                                               ; preds = %32
  %39 = load ptr, ptr %9, align 8
  %40 = getelementptr inbounds %struct.epan_column_info, ptr %39, i32 0, i32 2
  %41 = load ptr, ptr %40, align 8
  %42 = load i32, ptr %10, align 4
  %43 = sext i32 %42 to i64
  %44 = getelementptr %struct.col_item_t, ptr %41, i64 %43
  %45 = getelementptr inbounds %struct.col_item_t, ptr %44, i32 0, i32 11
  %46 = load i32, ptr %45, align 8
  %47 = icmp ne i32 %46, -1
  br i1 %47, label %48, label %95

48:                                               ; preds = %38
  %49 = load ptr, ptr %9, align 8
  %50 = getelementptr inbounds %struct.epan_column_info, ptr %49, i32 0, i32 2
  %51 = load ptr, ptr %50, align 8
  %52 = load i32, ptr %10, align 4
  %53 = sext i32 %52 to i64
  %54 = getelementptr %struct.col_item_t, ptr %51, i64 %53
  %55 = getelementptr inbounds %struct.col_item_t, ptr %54, i32 0, i32 0
  %56 = load i32, ptr %55, align 8
  %57 = icmp eq i32 %56, 4
  br i1 %57, label %58, label %78

58:                                               ; preds = %48
  %59 = load ptr, ptr %8, align 8
  %60 = load ptr, ptr %9, align 8
  %61 = getelementptr inbounds %struct.epan_column_info, ptr %60, i32 0, i32 2
  %62 = load ptr, ptr %61, align 8
  %63 = load i32, ptr %10, align 4
  %64 = sext i32 %63 to i64
  %65 = getelementptr %struct.col_item_t, ptr %62, i64 %64
  %66 = getelementptr inbounds %struct.col_item_t, ptr %65, i32 0, i32 11
  %67 = load i32, ptr %66, align 8
  %68 = load ptr, ptr %4, align 8
  %69 = load ptr, ptr %9, align 8
  %70 = load i32, ptr %10, align 4
  %71 = call ptr @get_column_text(ptr noundef %69, i32 noundef %70)
  %72 = load i32, ptr %10, align 4
  %73 = call ptr @get_column_title(i32 noundef %72)
  %74 = load ptr, ptr %9, align 8
  %75 = load i32, ptr %10, align 4
  %76 = call ptr @get_column_text(ptr noundef %74, i32 noundef %75)
  %77 = call ptr (ptr, i32, ptr, i32, i32, ptr, ptr, ...) @proto_tree_add_string_format(ptr noundef %59, i32 noundef %67, ptr noundef %68, i32 noundef 0, i32 noundef 0, ptr noundef %71, ptr noundef @.str.17, ptr noundef %73, ptr noundef %76)
  store ptr %77, ptr %7, align 8
  br label %93

78:                                               ; preds = %48
  %79 = load ptr, ptr %8, align 8
  %80 = load ptr, ptr %9, align 8
  %81 = getelementptr inbounds %struct.epan_column_info, ptr %80, i32 0, i32 2
  %82 = load ptr, ptr %81, align 8
  %83 = load i32, ptr %10, align 4
  %84 = sext i32 %83 to i64
  %85 = getelementptr %struct.col_item_t, ptr %82, i64 %84
  %86 = getelementptr inbounds %struct.col_item_t, ptr %85, i32 0, i32 11
  %87 = load i32, ptr %86, align 8
  %88 = load ptr, ptr %4, align 8
  %89 = load ptr, ptr %9, align 8
  %90 = load i32, ptr %10, align 4
  %91 = call ptr @get_column_text(ptr noundef %89, i32 noundef %90)
  %92 = call ptr @proto_tree_add_string(ptr noundef %79, i32 noundef %87, ptr noundef %88, i32 noundef 0, i32 noundef 0, ptr noundef %91)
  store ptr %92, ptr %7, align 8
  br label %93

93:                                               ; preds = %78, %58
  %94 = load ptr, ptr %7, align 8
  call void @proto_item_set_hidden(ptr noundef %94)
  br label %95

95:                                               ; preds = %93, %38
  br label %96

96:                                               ; preds = %95
  %97 = load i32, ptr %10, align 4
  %98 = add i32 %97, 1
  store i32 %98, ptr %10, align 4
  br label %32, !llvm.loop !31

99:                                               ; preds = %32
  br label %100

100:                                              ; preds = %99, %17, %16
  ret void
}