; Function Attrs: nounwind uwtable
define hidden void @col_dissect(ptr noundef %0, ptr noundef %1, ptr noundef %2) local_unnamed_addr #0 {
  %4 = getelementptr inbounds nuw i8, ptr %1, i64 8
  %5 = load ptr, ptr %4, align 8
  %.not = icmp eq ptr %5, null
  br i1 %.not, label %.loopexit, label %6

6:                                                ; preds = %3
  %7 = load i32, ptr @proto_cols, align 4
  %8 = tail call i32 @proto_field_is_referenced(ptr noundef %2, i32 noundef %7) #16
  %.not33 = icmp eq i32 %8, 0
  br i1 %.not33, label %.loopexit, label %9

9:                                                ; preds = %6
  tail call void @col_fill_in(ptr noundef nonnull %1, i32 noundef 0, i32 noundef 1)
  %10 = load i32, ptr @proto_cols, align 4
  %11 = tail call ptr @proto_tree_add_item(ptr noundef %2, i32 noundef %10, ptr noundef %0, i32 noundef 0, i32 noundef 0, i32 noundef 0) #16
  %.not.i = icmp eq ptr %11, null
  br i1 %.not.i, label %proto_item_set_hidden.exit, label %12

12:                                               ; preds = %9
  %13 = getelementptr inbounds nuw i8, ptr %11, i64 32
  %14 = load ptr, ptr %13, align 8
  %.not5.i = icmp eq ptr %14, null
  br i1 %.not5.i, label %proto_item_set_hidden.exit, label %15

15:                                               ; preds = %12
  %16 = getelementptr inbounds nuw i8, ptr %14, i64 28
  %17 = load i32, ptr %16, align 4
  %18 = or i32 %17, 1
  store i32 %18, ptr %16, align 4
  br label %proto_item_set_hidden.exit

proto_item_set_hidden.exit:                       ; preds = %9, %12, %15
  %19 = load i32, ptr @ett_cols, align 4
  %20 = tail call ptr @proto_item_add_subtree(ptr noundef %11, i32 noundef %19) #16
  %21 = getelementptr inbounds nuw i8, ptr %5, i64 8
  %22 = load i32, ptr %21, align 8
  %23 = icmp sgt i32 %22, 0
  br i1 %23, label %.lr.ph, label %.loopexit

.lr.ph:                                           ; preds = %proto_item_set_hidden.exit
  %24 = getelementptr inbounds nuw i8, ptr %5, i64 16
  br label %25

25:                                               ; preds = %.lr.ph, %proto_item_set_hidden.exit37
  %indvars.iv = phi i64 [ 0, %.lr.ph ], [ %indvars.iv.next, %proto_item_set_hidden.exit37 ]
  %26 = load ptr, ptr %24, align 8
  %27 = getelementptr %struct.col_item_t, ptr %26, i64 %indvars.iv
  %28 = getelementptr inbounds nuw i8, ptr %27, i64 80
  %29 = load i32, ptr %28, align 8
  %.not34 = icmp eq i32 %29, -1
  br i1 %.not34, label %proto_item_set_hidden.exit37, label %30

30:                                               ; preds = %25
  %31 = load i32, ptr %27, align 8
  %32 = icmp eq i32 %31, 4
  %33 = trunc nuw nsw i64 %indvars.iv to i32
  %34 = tail call ptr @get_column_text(ptr noundef nonnull %5, i32 noundef %33) #16
  br i1 %32, label %35, label %39

35:                                               ; preds = %30
  %36 = tail call ptr @get_column_title(i32 noundef %33) #16
  %37 = tail call ptr @get_column_text(ptr noundef nonnull %5, i32 noundef %33) #16
  %38 = tail call ptr (ptr, i32, ptr, i32, i32, ptr, ptr, ...) @proto_tree_add_string_format(ptr noundef %20, i32 noundef %29, ptr noundef %0, i32 noundef 0, i32 noundef 0, ptr noundef %34, ptr noundef nonnull @.str.17, ptr noundef %36, ptr noundef %37) #16
  br label %41

39:                                               ; preds = %30
  %40 = tail call ptr @proto_tree_add_string(ptr noundef %20, i32 noundef %29, ptr noundef %0, i32 noundef 0, i32 noundef 0, ptr noundef %34) #16
  br label %41

41:                                               ; preds = %39, %35
  %.030 = phi ptr [ %38, %35 ], [ %40, %39 ]
  %.not.i35 = icmp eq ptr %.030, null
  br i1 %.not.i35, label %proto_item_set_hidden.exit37, label %42

42:                                               ; preds = %41
  %43 = getelementptr inbounds nuw i8, ptr %.030, i64 32
  %44 = load ptr, ptr %43, align 8
  %.not5.i36 = icmp eq ptr %44, null
  br i1 %.not5.i36, label %proto_item_set_hidden.exit37, label %45

45:                                               ; preds = %42
  %46 = getelementptr inbounds nuw i8, ptr %44, i64 28
  %47 = load i32, ptr %46, align 4
  %48 = or i32 %47, 1
  store i32 %48, ptr %46, align 4
  br label %proto_item_set_hidden.exit37

proto_item_set_hidden.exit37:                     ; preds = %45, %42, %41, %25
  %indvars.iv.next = add nuw nsw i64 %indvars.iv, 1
  %49 = load i32, ptr %21, align 8
  %50 = sext i32 %49 to i64
  %51 = icmp slt i64 %indvars.iv.next, %50
  br i1 %51, label %25, label %.loopexit, !llvm.loop !31

.loopexit:                                        ; preds = %proto_item_set_hidden.exit37, %proto_item_set_hidden.exit, %3, %6
  ret void
}